target datalayout = "e-m:e-p270:32:32-p271:32:32-p272:64:64-i64:64-i128:128-f80:128-n8:16:32:64-S128"
target triple = "x86_64-pc-linux-gnu"

@.str.1 = private unnamed_addr constant [57 x i8] c"ABC framework is not initialized by calling Abc_Start()\0A\00", align 1
@.str.2 = private unnamed_addr constant [50 x i8] c"Current network in ABC framework is not defined.\0A\00", align 1

; Function Attrs: nounwind uwtable
define ptr @Abc_FrameGiaOutputMiniAig(ptr noundef %0) #0 {
  %2 = alloca ptr, align 8
  %3 = alloca ptr, align 8
  store ptr %0, ptr %2, align 8, !tbaa !58
  call void @llvm.lifetime.start.p0(i64 8, ptr %3) #13
  %4 = load ptr, ptr %2, align 8, !tbaa !58
  %5 = icmp eq ptr %4, null
  br i1 %5, label %6, label %8

6:                                                ; preds = %1
  %7 = call i32 (ptr, ...) @printf(ptr noundef @.str.1)
  br label %8

8:                                                ; preds = %6, %1
  %9 = load ptr, ptr %2, align 8, !tbaa !58
  %10 = call ptr @Abc_FrameReadGia(ptr noundef %9)
  store ptr %10, ptr %3, align 8, !tbaa !3
  %11 = load ptr, ptr %3, align 8, !tbaa !3
  %12 = icmp eq ptr %11, null
  br i1 %12, label %13, label %15

13:                                               ; preds = %8
  %14 = call i32 (ptr, ...) @printf(ptr noundef @.str.2)
  br label %15

15:                                               ; preds = %13, %8
  %16 = load ptr, ptr %3, align 8, !tbaa !3
  %17 = call ptr @Gia_ManToMiniAig(ptr noundef %16)
  call void @llvm.lifetime.end.p0(i64 8, ptr %3) #13
  ret ptr %17
}